; Function Attrs: mustprogress norecurse uwtable
define internal fastcc void @_ZL10norm_0_255RKN2cv11_InputArrayE(ptr dead_on_unwind noalias nonnull writable align 8 %0, ptr noundef nonnull align 8 dereferenceable(24) %1) unnamed_addr #3 personality ptr @__gxx_personality_v0 {
  %3 = alloca %"class.cv::Mat", align 8
  %4 = alloca %"class.cv::_InputOutputArray", align 8
  %5 = alloca %"class.cv::_InputOutputArray", align 8
  %6 = alloca %"class.cv::_OutputArray", align 8
  call void @llvm.lifetime.start.p0(i64 96, ptr nonnull %3) #24
  %7 = tail call noundef i32 @_ZNK2cv11_InputArray4kindEv(ptr noundef nonnull align 8 dereferenceable(24) %1), !noalias !99
  %8 = icmp eq i32 %7, 65536
  br i1 %8, label %9, label %12

9:                                                ; preds = %2
  %10 = getelementptr inbounds nuw i8, ptr %1, i64 8
  %11 = load ptr, ptr %10, align 8, !tbaa !74, !noalias !99
  call void @_ZN2cv3MatC1ERKS0_(ptr noundef nonnull align 8 dereferenceable(96) %3, ptr noundef nonnull align 8 dereferenceable(96) %11)
  br label %_ZNK2cv11_InputArray6getMatEi.exit

12:                                               ; preds = %2
  call void @_ZNK2cv11_InputArray7getMat_Ei(ptr dead_on_unwind nonnull writable sret(%"class.cv::Mat") align 8 %3, ptr noundef nonnull align 8 dereferenceable(24) %1, i32 noundef -1)
  br label %_ZNK2cv11_InputArray6getMatEi.exit

_ZNK2cv11_InputArray6getMatEi.exit:               ; preds = %9, %12
  call void @_ZN2cv3MatC1Ev(ptr noundef nonnull align 8 dereferenceable(96) %0) #24
  %13 = load i32, ptr %3, align 8, !tbaa !75
  %14 = lshr i32 %13, 3
  %15 = and i32 %14, 511
  switch i32 %15, label %32 [
    i32 0, label %16
    i32 2, label %24
  ]

16:                                               ; preds = %_ZNK2cv11_InputArray6getMatEi.exit
  call void @llvm.lifetime.start.p0(i64 24, ptr nonnull %4) #24
  %17 = getelementptr inbounds nuw i8, ptr %4, i64 8
  %18 = getelementptr inbounds nuw i8, ptr %4, i64 16
  store i64 0, ptr %18, align 8
  store i32 50397184, ptr %4, align 8, !tbaa !72
  store ptr %0, ptr %17, align 8, !tbaa !74
  %19 = invoke noundef nonnull align 8 dereferenceable(24) ptr @_ZN2cv7noArrayEv()
          to label %20 unwind label %22

20:                                               ; preds = %16
  invoke void @_ZN2cv9normalizeERKNS_11_InputArrayERKNS_17_InputOutputArrayEddiiS2_(ptr noundef nonnull align 8 dereferenceable(24) %1, ptr noundef nonnull align 8 dereferenceable(24) %4, double noundef 0.000000e+00, double noundef 2.550000e+02, i32 noundef 32, i32 noundef 0, ptr noundef nonnull align 8 dereferenceable(24) %19)
          to label %21 unwind label %22

21:                                               ; preds = %20
  call void @llvm.lifetime.end.p0(i64 24, ptr nonnull %4) #24
  br label %38

22:                                               ; preds = %20, %16
  %23 = landingpad { ptr, i32 }
          cleanup
  call void @llvm.lifetime.end.p0(i64 24, ptr nonnull %4) #24
  br label %39

24:                                               ; preds = %_ZNK2cv11_InputArray6getMatEi.exit
  call void @llvm.lifetime.start.p0(i64 24, ptr nonnull %5) #24
  %25 = getelementptr inbounds nuw i8, ptr %5, i64 8
  %26 = getelementptr inbounds nuw i8, ptr %5, i64 16
  store i64 0, ptr %26, align 8
  store i32 50397184, ptr %5, align 8, !tbaa !72
  store ptr %0, ptr %25, align 8, !tbaa !74
  %27 = invoke noundef nonnull align 8 dereferenceable(24) ptr @_ZN2cv7noArrayEv()
          to label %28 unwind label %30

28:                                               ; preds = %24
  invoke void @_ZN2cv9normalizeERKNS_11_InputArrayERKNS_17_InputOutputArrayEddiiS2_(ptr noundef nonnull align 8 dereferenceable(24) %1, ptr noundef nonnull align 8 dereferenceable(24) %5, double noundef 0.000000e+00, double noundef 2.550000e+02, i32 noundef 32, i32 noundef 16, ptr noundef nonnull align 8 dereferenceable(24) %27)
          to label %29 unwind label %30

29:                                               ; preds = %28
  call void @llvm.lifetime.end.p0(i64 24, ptr nonnull %5) #24
  br label %38

30:                                               ; preds = %28, %24
  %31 = landingpad { ptr, i32 }
          cleanup
  call void @llvm.lifetime.end.p0(i64 24, ptr nonnull %5) #24
  br label %39

32:                                               ; preds = %_ZNK2cv11_InputArray6getMatEi.exit
  call void @llvm.lifetime.start.p0(i64 24, ptr nonnull %6) #24
  %33 = getelementptr inbounds nuw i8, ptr %6, i64 8
  %34 = getelementptr inbounds nuw i8, ptr %6, i64 16
  store i64 0, ptr %34, align 8
  store i32 33619968, ptr %6, align 8, !tbaa !72
  store ptr %0, ptr %33, align 8, !tbaa !74
  invoke void @_ZNK2cv3Mat6copyToERKNS_12_OutputArrayE(ptr noundef nonnull align 8 dereferenceable(96) %3, ptr noundef nonnull align 8 dereferenceable(24) %6)
          to label %35 unwind label %36

35:                                               ; preds = %32
  call void @llvm.lifetime.end.p0(i64 24, ptr nonnull %6) #24
  br label %38

36:                                               ; preds = %32
  %37 = landingpad { ptr, i32 }
          cleanup
  call void @llvm.lifetime.end.p0(i64 24, ptr nonnull %6) #24
  br label %39

38:                                               ; preds = %21, %29, %35
  call void @_ZN2cv3MatD1Ev(ptr noundef nonnull align 8 dereferenceable(96) %3) #24
  call void @llvm.lifetime.end.p0(i64 96, ptr nonnull %3) #24
  ret void

39:                                               ; preds = %36, %30, %22
  %.pn12.pn = phi { ptr, i32 } [ %37, %36 ], [ %31, %30 ], [ %23, %22 ]
  call void @_ZN2cv3MatD1Ev(ptr noundef nonnull align 8 dereferenceable(96) %0) #24
  call void @_ZN2cv3MatD1Ev(ptr noundef nonnull align 8 dereferenceable(96) %3) #24
  call void @llvm.lifetime.end.p0(i64 96, ptr nonnull %3) #24
  resume { ptr, i32 } %.pn12.pn
}